target datalayout = "e-m:e-p270:32:32-p271:32:32-p272:64:64-i64:64-i128:128-f80:128-n8:16:32:64-S128"
target triple = "x86_64-pc-linux-gnu"

%struct.expert_field = type { i32, i32 }
%struct._packet_info = type { ptr, ptr, i32, i32, %struct.nstime_t, %struct.nstime_t, %struct.nstime_t, i8, ptr, ptr, ptr, ptr, %struct._address, %struct._address, %struct._address, %struct._address, %struct._address, %struct._address, i32, ptr, i8, [3 x i8], %struct.anon, i32, i32, i32, i32, ptr, i8, ptr, ptr, i16, i16, i32, i32, i16, i32, i32, ptr, ptr, ptr, i8, i8, i16, i16, i16, i32, i16, i16, ptr, ptr, ptr, ptr, ptr, i32, i32 }
%struct.nstime_t = type { i64, i32 }
%struct._address = type { i32, i32, ptr, ptr }
%struct.anon = type { i8, [3 x i8] }

@ei_gsm_a_gm_extraneous_data = internal global %struct.expert_field zeroinitializer, align 4
@.str.1131 = private unnamed_addr constant [23 x i8] c" - Negotiated LLC SAPI\00", align 1
@.str.1132 = private unnamed_addr constant [18 x i8] c" - Negotiated QoS\00", align 1
@.str.1135 = private unnamed_addr constant [27 x i8] c" - WLAN offload indication\00", align 1
@.str.1142 = private unnamed_addr constant [22 x i8] c" - New radio priority\00", align 1

; Function Attrs: null_pointer_is_valid sspstrong uwtable
define internal void @dtap_sm_mod_pdp_acc_net(ptr noundef %0, ptr noundef %1, ptr noundef %2, i32 noundef %3, i32 noundef %4) #1 {
  %6 = alloca ptr, align 8
  %7 = alloca ptr, align 8
  %8 = alloca ptr, align 8
  %9 = alloca i32, align 4
  %10 = alloca i32, align 4
  %11 = alloca i32, align 4
  %12 = alloca i32, align 4
  %13 = alloca i32, align 4
  %14 = alloca i32, align 4
  store ptr %0, ptr %6, align 8
  store ptr %1, ptr %7, align 8
  store ptr %2, ptr %8, align 8
  store i32 %3, ptr %9, align 4
  store i32 %4, ptr %10, align 4
  call void @llvm.lifetime.start.p0(i64 4, ptr %11) #6
  call void @llvm.lifetime.start.p0(i64 4, ptr %12) #6
  call void @llvm.lifetime.start.p0(i64 4, ptr %13) #6
  %15 = load i32, ptr %9, align 4
  store i32 %15, ptr %11, align 4
  %16 = load i32, ptr %10, align 4
  store i32 %16, ptr %13, align 4
  %17 = load ptr, ptr %8, align 8
  %18 = getelementptr inbounds nuw %struct._packet_info, ptr %17, i32 0, i32 37
  store i32 -1, ptr %18, align 4
  %19 = load ptr, ptr %8, align 8
  %20 = getelementptr inbounds nuw %struct._packet_info, ptr %19, i32 0, i32 46
  store i32 1, ptr %20, align 8
  %21 = load i32, ptr %13, align 4
  %22 = icmp sle i32 %21, 0
  br i1 %22, label %23, label %24

23:                                               ; preds = %5
  store i32 1, ptr %14, align 4
  br label %213

24:                                               ; preds = %5
  %25 = load ptr, ptr %6, align 8
  %26 = load ptr, ptr %7, align 8
  %27 = load ptr, ptr %8, align 8
  %28 = load i32, ptr %11, align 4
  %29 = load i32, ptr %13, align 4
  %30 = call zeroext i16 @elem_tlv(ptr noundef %25, ptr noundef %26, ptr noundef %27, i8 noundef zeroext 48, i32 noundef 5, i32 noundef 48, i32 noundef %28, i32 noundef %29, ptr noundef @.str.1132)
  %31 = zext i16 %30 to i32
  store i32 %31, ptr %12, align 4
  %32 = icmp ugt i32 %31, 0
  br i1 %32, label %33, label %40

33:                                               ; preds = %24
  %34 = load i32, ptr %12, align 4
  %35 = load i32, ptr %11, align 4
  %36 = add i32 %35, %34
  store i32 %36, ptr %11, align 4
  %37 = load i32, ptr %12, align 4
  %38 = load i32, ptr %13, align 4
  %39 = sub i32 %38, %37
  store i32 %39, ptr %13, align 4
  br label %40

40:                                               ; preds = %33, %24
  %41 = load i32, ptr %13, align 4
  %42 = icmp sle i32 %41, 0
  br i1 %42, label %43, label %44

43:                                               ; preds = %40
  store i32 1, ptr %14, align 4
  br label %213

44:                                               ; preds = %40
  %45 = load ptr, ptr %6, align 8
  %46 = load ptr, ptr %7, align 8
  %47 = load ptr, ptr %8, align 8
  %48 = load i32, ptr %11, align 4
  %49 = call zeroext i16 @elem_tv(ptr noundef %45, ptr noundef %46, ptr noundef %47, i8 noundef zeroext 50, i32 noundef 5, i32 noundef 54, i32 noundef %48, ptr noundef @.str.1131)
  %50 = zext i16 %49 to i32
  store i32 %50, ptr %12, align 4
  %51 = icmp ugt i32 %50, 0
  br i1 %51, label %52, label %59

52:                                               ; preds = %44
  %53 = load i32, ptr %12, align 4
  %54 = load i32, ptr %11, align 4
  %55 = add i32 %54, %53
  store i32 %55, ptr %11, align 4
  %56 = load i32, ptr %12, align 4
  %57 = load i32, ptr %13, align 4
  %58 = sub i32 %57, %56
  store i32 %58, ptr %13, align 4
  br label %59

59:                                               ; preds = %52, %44
  %60 = load i32, ptr %13, align 4
  %61 = icmp sle i32 %60, 0
  br i1 %61, label %62, label %63

62:                                               ; preds = %59
  store i32 1, ptr %14, align 4
  br label %213

63:                                               ; preds = %59
  %64 = load ptr, ptr %6, align 8
  %65 = load ptr, ptr %7, align 8
  %66 = load ptr, ptr %8, align 8
  %67 = load i32, ptr %11, align 4
  %68 = call zeroext i16 @elem_tv_short(ptr noundef %64, ptr noundef %65, ptr noundef %66, i8 noundef zeroext -128, i32 noundef 5, i32 noundef 68, i32 noundef %67, ptr noundef @.str.1142)
  %69 = zext i16 %68 to i32
  store i32 %69, ptr %12, align 4
  %70 = icmp ugt i32 %69, 0
  br i1 %70, label %71, label %78

71:                                               ; preds = %63
  %72 = load i32, ptr %12, align 4
  %73 = load i32, ptr %11, align 4
  %74 = add i32 %73, %72
  store i32 %74, ptr %11, align 4
  %75 = load i32, ptr %12, align 4
  %76 = load i32, ptr %13, align 4
  %77 = sub i32 %76, %75
  store i32 %77, ptr %13, align 4
  br label %78

78:                                               ; preds = %71, %63
  %79 = load i32, ptr %13, align 4
  %80 = icmp sle i32 %79, 0
  br i1 %80, label %81, label %82

81:                                               ; preds = %78
  store i32 1, ptr %14, align 4
  br label %213

82:                                               ; preds = %78
  %83 = load ptr, ptr %6, align 8
  %84 = load ptr, ptr %7, align 8
  %85 = load ptr, ptr %8, align 8
  %86 = load i32, ptr %11, align 4
  %87 = load i32, ptr %13, align 4
  %88 = call zeroext i16 @elem_tlv(ptr noundef %83, ptr noundef %84, ptr noundef %85, i8 noundef zeroext 52, i32 noundef 5, i32 noundef 56, i32 noundef %86, i32 noundef %87, ptr noundef null)
  %89 = zext i16 %88 to i32
  store i32 %89, ptr %12, align 4
  %90 = icmp ugt i32 %89, 0
  br i1 %90, label %91, label %98

91:                                               ; preds = %82
  %92 = load i32, ptr %12, align 4
  %93 = load i32, ptr %11, align 4
  %94 = add i32 %93, %92
  store i32 %94, ptr %11, align 4
  %95 = load i32, ptr %12, align 4
  %96 = load i32, ptr %13, align 4
  %97 = sub i32 %96, %95
  store i32 %97, ptr %13, align 4
  br label %98

98:                                               ; preds = %91, %82
  %99 = load i32, ptr %13, align 4
  %100 = icmp sle i32 %99, 0
  br i1 %100, label %101, label %102

101:                                              ; preds = %98
  store i32 1, ptr %14, align 4
  br label %213

102:                                              ; preds = %98
  %103 = load ptr, ptr %6, align 8
  %104 = load ptr, ptr %7, align 8
  %105 = load ptr, ptr %8, align 8
  %106 = load i32, ptr %11, align 4
  %107 = load i32, ptr %13, align 4
  %108 = call zeroext i16 @elem_tlv(ptr noundef %103, ptr noundef %104, ptr noundef %105, i8 noundef zeroext 39, i32 noundef 5, i32 noundef 45, i32 noundef %106, i32 noundef %107, ptr noundef null)
  %109 = zext i16 %108 to i32
  store i32 %109, ptr %12, align 4
  %110 = icmp ugt i32 %109, 0
  br i1 %110, label %111, label %118

111:                                              ; preds = %102
  %112 = load i32, ptr %12, align 4
  %113 = load i32, ptr %11, align 4
  %114 = add i32 %113, %112
  store i32 %114, ptr %11, align 4
  %115 = load i32, ptr %12, align 4
  %116 = load i32, ptr %13, align 4
  %117 = sub i32 %116, %115
  store i32 %117, ptr %13, align 4
  br label %118

118:                                              ; preds = %111, %102
  %119 = load i32, ptr %13, align 4
  %120 = icmp sle i32 %119, 0
  br i1 %120, label %121, label %122

121:                                              ; preds = %118
  store i32 1, ptr %14, align 4
  br label %213

122:                                              ; preds = %118
  %123 = load ptr, ptr %6, align 8
  %124 = load ptr, ptr %7, align 8
  %125 = load ptr, ptr %8, align 8
  %126 = load i32, ptr %11, align 4
  %127 = call zeroext i16 @elem_tv_short(ptr noundef %123, ptr noundef %124, ptr noundef %125, i8 noundef zeroext -64, i32 noundef 5, i32 noundef 65, i32 noundef %126, ptr noundef @.str.1135)
  %128 = zext i16 %127 to i32
  store i32 %128, ptr %12, align 4
  %129 = icmp ugt i32 %128, 0
  br i1 %129, label %130, label %137

130:                                              ; preds = %122
  %131 = load i32, ptr %12, align 4
  %132 = load i32, ptr %11, align 4
  %133 = add i32 %132, %131
  store i32 %133, ptr %11, align 4
  %134 = load i32, ptr %12, align 4
  %135 = load i32, ptr %13, align 4
  %136 = sub i32 %135, %134
  store i32 %136, ptr %13, align 4
  br label %137

137:                                              ; preds = %130, %122
  %138 = load i32, ptr %13, align 4
  %139 = icmp sle i32 %138, 0
  br i1 %139, label %140, label %141

140:                                              ; preds = %137
  store i32 1, ptr %14, align 4
  br label %213

141:                                              ; preds = %137
  %142 = load ptr, ptr %6, align 8
  %143 = load ptr, ptr %7, align 8
  %144 = load ptr, ptr %8, align 8
  %145 = load i32, ptr %11, align 4
  %146 = load i32, ptr %13, align 4
  %147 = call zeroext i16 @elem_tlv(ptr noundef %142, ptr noundef %143, ptr noundef %144, i8 noundef zeroext 51, i32 noundef 5, i32 noundef 66, i32 noundef %145, i32 noundef %146, ptr noundef null)
  %148 = zext i16 %147 to i32
  store i32 %148, ptr %12, align 4
  %149 = icmp ugt i32 %148, 0
  br i1 %149, label %150, label %157

150:                                              ; preds = %141
  %151 = load i32, ptr %12, align 4
  %152 = load i32, ptr %11, align 4
  %153 = add i32 %152, %151
  store i32 %153, ptr %11, align 4
  %154 = load i32, ptr %12, align 4
  %155 = load i32, ptr %13, align 4
  %156 = sub i32 %155, %154
  store i32 %156, ptr %13, align 4
  br label %157

157:                                              ; preds = %150, %141
  %158 = load i32, ptr %13, align 4
  %159 = icmp sle i32 %158, 0
  br i1 %159, label %160, label %161

160:                                              ; preds = %157
  store i32 1, ptr %14, align 4
  br label %213

161:                                              ; preds = %157
  %162 = load ptr, ptr %6, align 8
  %163 = load ptr, ptr %7, align 8
  %164 = load ptr, ptr %8, align 8
  %165 = load i32, ptr %11, align 4
  %166 = load i32, ptr %13, align 4
  %167 = call zeroext i16 @elem_tlv_e(ptr noundef %162, ptr noundef %163, ptr noundef %164, i8 noundef zeroext 123, i32 noundef 5, i32 noundef 46, i32 noundef %165, i32 noundef %166, ptr noundef null)
  %168 = zext i16 %167 to i32
  store i32 %168, ptr %12, align 4
  %169 = icmp ugt i32 %168, 0
  br i1 %169, label %170, label %177

170:                                              ; preds = %161
  %171 = load i32, ptr %12, align 4
  %172 = load i32, ptr %11, align 4
  %173 = add i32 %172, %171
  store i32 %173, ptr %11, align 4
  %174 = load i32, ptr %12, align 4
  %175 = load i32, ptr %13, align 4
  %176 = sub i32 %175, %174
  store i32 %176, ptr %13, align 4
  br label %177

177:                                              ; preds = %170, %161
  %178 = load i32, ptr %13, align 4
  %179 = icmp sle i32 %178, 0
  br i1 %179, label %180, label %181

180:                                              ; preds = %177
  store i32 1, ptr %14, align 4
  br label %213

181:                                              ; preds = %177
  %182 = load ptr, ptr %6, align 8
  %183 = load ptr, ptr %7, align 8
  %184 = load ptr, ptr %8, align 8
  %185 = load i32, ptr %11, align 4
  %186 = load i32, ptr %13, align 4
  %187 = call zeroext i16 @elem_tlv(ptr noundef %182, ptr noundef %183, ptr noundef %184, i8 noundef zeroext 92, i32 noundef 5, i32 noundef 50, i32 noundef %185, i32 noundef %186, ptr noundef null)
  %188 = zext i16 %187 to i32
  store i32 %188, ptr %12, align 4
  %189 = icmp ugt i32 %188, 0
  br i1 %189, label %190, label %197

190:                                              ; preds = %181
  %191 = load i32, ptr %12, align 4
  %192 = load i32, ptr %11, align 4
  %193 = add i32 %192, %191
  store i32 %193, ptr %11, align 4
  %194 = load i32, ptr %12, align 4
  %195 = load i32, ptr %13, align 4
  %196 = sub i32 %195, %194
  store i32 %196, ptr %13, align 4
  br label %197

197:                                              ; preds = %190, %181
  %198 = load i32, ptr %13, align 4
  %199 = icmp ugt i32 %198, 0
  br i1 %199, label %200, label %212

200:                                              ; preds = %197
  %201 = load ptr, ptr %7, align 8
  %202 = load ptr, ptr %8, align 8
  %203 = load ptr, ptr %6, align 8
  %204 = load i32, ptr %11, align 4
  %205 = load i32, ptr %13, align 4
  %206 = sub i32 %205, 0
  %207 = call ptr @proto_tree_add_expert(ptr noundef %201, ptr noundef %202, ptr noundef @ei_gsm_a_gm_extraneous_data, ptr noundef %203, i32 noundef %204, i32 noundef %206)
  %208 = load i32, ptr %13, align 4
  %209 = sub i32 %208, 0
  %210 = load i32, ptr %11, align 4
  %211 = add i32 %210, %209
  store i32 %211, ptr %11, align 4
  br label %212

212:                                              ; preds = %200, %197
  store i32 0, ptr %14, align 4
  br label %213

213:                                              ; preds = %212, %180, %160, %140, %121, %101, %81, %62, %43, %23
  call void @llvm.lifetime.end.p0(i64 4, ptr %13) #6
  call void @llvm.lifetime.end.p0(i64 4, ptr %12) #6
  call void @llvm.lifetime.end.p0(i64 4, ptr %11) #6
  %214 = load i32, ptr %14, align 4
  switch i32 %214, label %216 [
    i32 0, label %215
    i32 1, label %215
  ]

215:                                              ; preds = %213, %213
  ret void

216:                                              ; preds = %213
  unreachable
}