; Function Attrs: null_pointer_is_valid sspstrong uwtable
define internal void @dtap_sm_mod_pdp_acc_net(ptr noundef %0, ptr noundef %1, ptr noundef initializes((348, 352), (384, 388)) %2, i32 noundef %3, i32 noundef %4) #1 {
  %6 = getelementptr inbounds nuw i8, ptr %2, i64 348
  store i32 -1, ptr %6, align 4
  %7 = getelementptr inbounds nuw i8, ptr %2, i64 384
  store i32 1, ptr %7, align 8
  %8 = icmp slt i32 %4, 1
  br i1 %8, label %64, label %9

9:                                                ; preds = %5
  %10 = tail call zeroext i16 @elem_tlv(ptr noundef %0, ptr noundef %1, ptr noundef %2, i8 noundef zeroext 48, i32 noundef 5, i32 noundef 48, i32 noundef %3, i32 noundef %4, ptr noundef nonnull @.str.1132)
  %11 = zext i16 %10 to i32
  %12 = sub nsw i32 %4, %11
  %13 = icmp slt i32 %12, 1
  br i1 %13, label %64, label %14

14:                                               ; preds = %9
  %15 = add i32 %3, %11
  %16 = tail call zeroext i16 @elem_tv(ptr noundef %0, ptr noundef %1, ptr noundef %2, i8 noundef zeroext 50, i32 noundef 5, i32 noundef 54, i32 noundef %15, ptr noundef nonnull @.str.1131)
  %17 = zext i16 %16 to i32
  %18 = sub nsw i32 %12, %17
  %19 = icmp slt i32 %18, 1
  br i1 %19, label %64, label %20

20:                                               ; preds = %14
  %21 = add i32 %15, %17
  %22 = tail call zeroext i16 @elem_tv_short(ptr noundef %0, ptr noundef %1, ptr noundef %2, i8 noundef zeroext -128, i32 noundef 5, i32 noundef 68, i32 noundef %21, ptr noundef nonnull @.str.1142)
  %23 = zext i16 %22 to i32
  %24 = sub nsw i32 %18, %23
  %25 = icmp slt i32 %24, 1
  br i1 %25, label %64, label %26

26:                                               ; preds = %20
  %27 = add i32 %21, %23
  %28 = tail call zeroext i16 @elem_tlv(ptr noundef %0, ptr noundef %1, ptr noundef %2, i8 noundef zeroext 52, i32 noundef 5, i32 noundef 56, i32 noundef %27, i32 noundef %24, ptr noundef null)
  %29 = zext i16 %28 to i32
  %30 = sub nsw i32 %24, %29
  %31 = icmp slt i32 %30, 1
  br i1 %31, label %64, label %32

32:                                               ; preds = %26
  %33 = add i32 %27, %29
  %34 = tail call zeroext i16 @elem_tlv(ptr noundef %0, ptr noundef %1, ptr noundef %2, i8 noundef zeroext 39, i32 noundef 5, i32 noundef 45, i32 noundef %33, i32 noundef %30, ptr noundef null)
  %35 = zext i16 %34 to i32
  %36 = sub nsw i32 %30, %35
  %37 = icmp slt i32 %36, 1
  br i1 %37, label %64, label %38

38:                                               ; preds = %32
  %39 = add i32 %33, %35
  %40 = tail call zeroext i16 @elem_tv_short(ptr noundef %0, ptr noundef %1, ptr noundef %2, i8 noundef zeroext -64, i32 noundef 5, i32 noundef 65, i32 noundef %39, ptr noundef nonnull @.str.1135)
  %41 = zext i16 %40 to i32
  %42 = sub nsw i32 %36, %41
  %43 = icmp slt i32 %42, 1
  br i1 %43, label %64, label %44

44:                                               ; preds = %38
  %45 = add i32 %39, %41
  %46 = tail call zeroext i16 @elem_tlv(ptr noundef %0, ptr noundef %1, ptr noundef %2, i8 noundef zeroext 51, i32 noundef 5, i32 noundef 66, i32 noundef %45, i32 noundef %42, ptr noundef null)
  %47 = zext i16 %46 to i32
  %48 = sub nsw i32 %42, %47
  %49 = icmp slt i32 %48, 1
  br i1 %49, label %64, label %50

50:                                               ; preds = %44
  %51 = add i32 %45, %47
  %52 = tail call zeroext i16 @elem_tlv_e(ptr noundef %0, ptr noundef %1, ptr noundef %2, i8 noundef zeroext 123, i32 noundef 5, i32 noundef 46, i32 noundef %51, i32 noundef %48, ptr noundef null)
  %53 = zext i16 %52 to i32
  %54 = sub nsw i32 %48, %53
  %55 = icmp slt i32 %54, 1
  br i1 %55, label %64, label %56

56:                                               ; preds = %50
  %57 = add i32 %51, %53
  %58 = tail call zeroext i16 @elem_tlv(ptr noundef %0, ptr noundef %1, ptr noundef %2, i8 noundef zeroext 92, i32 noundef 5, i32 noundef 50, i32 noundef %57, i32 noundef %54, ptr noundef null)
  %59 = zext i16 %58 to i32
  %.not125 = icmp eq i32 %54, %59
  br i1 %.not125, label %64, label %60

60:                                               ; preds = %56
  %61 = sub nsw i32 %54, %59
  %62 = add i32 %57, %59
  %63 = tail call ptr @proto_tree_add_expert(ptr noundef %1, ptr noundef %2, ptr noundef nonnull @ei_gsm_a_gm_extraneous_data, ptr noundef %0, i32 noundef %62, i32 noundef %61)
  br label %64

64:                                               ; preds = %56, %60, %50, %44, %38, %32, %26, %20, %14, %9, %5
  ret void
}